target datalayout = "e-m:e-p270:32:32-p271:32:32-p272:64:64-i64:64-i128:128-f80:128-n8:16:32:64-S128"
target triple = "x86_64-pc-linux-gnu"

%struct._packet_info = type { ptr, ptr, i32, i32, %struct.nstime_t, %struct.nstime_t, %struct.nstime_t, i8, ptr, ptr, ptr, ptr, %struct._address, %struct._address, %struct._address, %struct._address, %struct._address, %struct._address, i32, ptr, i8, [3 x i8], %struct.anon, i32, i32, i32, i32, ptr, i8, ptr, ptr, i16, i16, i32, i32, i16, i32, i32, ptr, ptr, ptr, i8, i8, i16, i16, i16, i32, i16, i16, ptr, ptr, ptr, ptr, ptr, i32, i32 }
%struct.nstime_t = type { i64, i32 }
%struct._address = type { i32, i32, ptr, ptr }
%struct.anon = type { i8, [3 x i8] }

@hf_ieee802154_hie_csl_rendezvous_time = internal global i32 0, align 4
@hf_ieee802154_hie_rdv = internal global i32 0, align 4
@hf_ieee802154_hie_rdv_wakeup_interval = internal global i32 0, align 4
@ett_ieee802154_hie_rdv = internal global i32 0, align 4
@.str.1196 = private unnamed_addr constant [18 x i8] c"CSL Wake-up Frame\00", align 1
@.str.1197 = private unnamed_addr constant [23 x i8] c", Rendez-Vous Time: %d\00", align 1

; Function Attrs: null_pointer_is_valid sspstrong uwtable
define internal i32 @dissect_hie_rendezvous_time(ptr noundef %0, ptr noundef %1, ptr noundef %2, ptr noundef %3) #0 {
  %5 = alloca i32, align 4
  %6 = alloca ptr, align 8
  %7 = alloca ptr, align 8
  %8 = alloca ptr, align 8
  %9 = alloca ptr, align 8
  %10 = alloca ptr, align 8
  %11 = alloca i32, align 4
  store ptr %0, ptr %6, align 8
  store ptr %1, ptr %7, align 8
  store ptr %2, ptr %8, align 8
  store ptr %3, ptr %9, align 8
  call void @llvm.lifetime.start.p0(i64 8, ptr %10) #17
  %12 = load ptr, ptr %6, align 8
  %13 = load ptr, ptr %8, align 8
  %14 = load i32, ptr @hf_ieee802154_hie_rdv, align 4
  %15 = load i32, ptr @ett_ieee802154_hie_rdv, align 4
  %16 = call ptr @ieee802154_create_hie_tree(ptr noundef %12, ptr noundef %13, i32 noundef %14, i32 noundef %15)
  store ptr %16, ptr %10, align 8
  %17 = load ptr, ptr %10, align 8
  %18 = load i32, ptr @hf_ieee802154_hie_csl_rendezvous_time, align 4
  %19 = load ptr, ptr %6, align 8
  %20 = call ptr @proto_tree_add_item(ptr noundef %17, i32 noundef %18, ptr noundef %19, i32 noundef 2, i32 noundef 2, i32 noundef -2147483648)
  %21 = load ptr, ptr %7, align 8
  %22 = getelementptr inbounds nuw %struct._packet_info, ptr %21, i32 0, i32 1
  %23 = load ptr, ptr %22, align 8
  call void @col_set_str(ptr noundef %23, i32 noundef 25, ptr noundef @.str.1196)
  %24 = load ptr, ptr %7, align 8
  %25 = getelementptr inbounds nuw %struct._packet_info, ptr %24, i32 0, i32 1
  %26 = load ptr, ptr %25, align 8
  %27 = load ptr, ptr %6, align 8
  %28 = call zeroext i16 @tvb_get_uint16(ptr noundef %27, i32 noundef 2, i32 noundef -2147483648)
  %29 = zext i16 %28 to i32
  call void (ptr, i32, ptr, ...) @col_append_fstr(ptr noundef %26, i32 noundef 25, ptr noundef @.str.1197, i32 noundef %29)
  %30 = load ptr, ptr %6, align 8
  %31 = call i32 @tvb_reported_length(ptr noundef %30)
  %32 = icmp uge i32 %31, 6
  br i1 %32, label %33, label %38

33:                                               ; preds = %4
  %34 = load ptr, ptr %10, align 8
  %35 = load i32, ptr @hf_ieee802154_hie_rdv_wakeup_interval, align 4
  %36 = load ptr, ptr %6, align 8
  %37 = call ptr @proto_tree_add_item(ptr noundef %34, i32 noundef %35, ptr noundef %36, i32 noundef 4, i32 noundef 2, i32 noundef -2147483648)
  store i32 6, ptr %5, align 4
  store i32 1, ptr %11, align 4
  br label %39

38:                                               ; preds = %4
  store i32 4, ptr %5, align 4
  store i32 1, ptr %11, align 4
  br label %39

39:                                               ; preds = %38, %33
  call void @llvm.lifetime.end.p0(i64 8, ptr %10) #17
  %40 = load i32, ptr %5, align 4
  ret i32 %40
}