; Function Attrs: null_pointer_is_valid sspstrong uwtable
define internal range(i32 4, 7) i32 @dissect_hie_rendezvous_time(ptr noundef %0, ptr noundef readonly captures(none) %1, ptr noundef %2, ptr readnone captures(none) %3) #0 {
  %5 = load i32, ptr @hf_ieee802154_hie_rdv, align 4
  %6 = load i32, ptr @ett_ieee802154_hie_rdv, align 4
  %7 = tail call ptr @ieee802154_create_hie_tree(ptr noundef %0, ptr noundef %2, i32 noundef %5, i32 noundef %6)
  %8 = load i32, ptr @hf_ieee802154_hie_csl_rendezvous_time, align 4
  %9 = tail call ptr @proto_tree_add_item(ptr noundef %7, i32 noundef %8, ptr noundef %0, i32 noundef 2, i32 noundef 2, i32 noundef -2147483648)
  %10 = getelementptr inbounds nuw i8, ptr %1, i64 8
  %11 = load ptr, ptr %10, align 8
  tail call void @col_set_str(ptr noundef %11, i32 noundef 25, ptr noundef nonnull @.str.1196)
  %12 = load ptr, ptr %10, align 8
  %13 = tail call zeroext i16 @tvb_get_uint16(ptr noundef %0, i32 noundef 2, i32 noundef -2147483648)
  %14 = zext i16 %13 to i32
  tail call void (ptr, i32, ptr, ...) @col_append_fstr(ptr noundef %12, i32 noundef 25, ptr noundef nonnull @.str.1197, i32 noundef %14)
  %15 = tail call i32 @tvb_reported_length(ptr noundef %0)
  %16 = icmp ugt i32 %15, 5
  br i1 %16, label %17, label %20

17:                                               ; preds = %4
  %18 = load i32, ptr @hf_ieee802154_hie_rdv_wakeup_interval, align 4
  %19 = tail call ptr @proto_tree_add_item(ptr noundef %7, i32 noundef %18, ptr noundef %0, i32 noundef 4, i32 noundef 2, i32 noundef -2147483648)
  br label %20

20:                                               ; preds = %4, %17
  %.0 = phi i32 [ 6, %17 ], [ 4, %4 ]
  ret i32 %.0
}